; ModuleID = 'bench/openssl/original/localetest.ll'
source_filename = "bench/openssl/original/localetest.ll"
target datalayout = "e-m:e-p270:32:32-p271:32:32-p272:64:64-i64:64-i128:128-f80:128-n8:16:32:64-S128"
target triple = "x86_64-pc-linux-gnu"

@__const.setup_tests.der_bytes = private unnamed_addr constant [781 x i8] c"0\82\03\090\82\01\F1\A0\03\02\01\02\02\14\08\E0\8C\D3\F3\BF,\F2\0D\0Au\D1\E8\EA\BEpa\D9g\F90\0D\06\09*\86H\86\F7\0D\01\01\0B\05\000\141\120\10\06\03U\04\03\0C\09localhost0\1E\17\0D220411141957Z\17\0D220511141957Z0\141\120\10\06\03U\04\03\0C\09localhost0\82\01\220\0D\06\09*\86H\86\F7\0D\01\01\01\05\00\03\82\01\0F\000\82\01\0A\02\82\01\01\00\C3\1F\\VF\8Di\B6H<\BF\E2\0F\A7JDrt6\FE\E8/\10J\E9FEr^H\DDu\AB\D9c\917\93F(~E\94K\8A\D5\05+\9A\01\960\DE\CC\14-\06\09\1B}P\14\996k\97n\C9\B1ip\CD\9Bt$\9A\E2\D4\C0\1E\BC\EC\F6z\BB\A0S\93\F8h\9A\18\A1\A1\\G\93\D1L6\8C\00\B3f\DA\F1\05\B2:\AD~K\F3\D3\93\FAY\09\9C`7ia\E8Z3\C6\B2\1A\BA6\E2\B3X\E9s\01-6H6\94\E4\B2\A4[\DF=_b\9F\D9\F3$\0C\F0/qDy\13p\95\A7\BE\EA\0A\08\0A\A6K\E9Xk\A4\C2\EDt\1E\B0;Y\D5\E6\DB\8FXj\A3}R@\ECr\B7\BA~0\9D\12W\F2H\AE\80\0D\0A\F4\FD$\ED\D8\05\B2\96D\02>n%\B0\C4\93\DA\FEx\D9\BB\D2qip\7F\BA\F7\B0O\14\F7\98q\01l\ECov\03Y\FF\E2\BA\8D\D9!\08\B3\02\03\01\00\01\A3S0Q0\1D\06\03U\1D\0E\04\16\04\14Y\B8n\1Ar\E9'\1E\BF\80\87\0F\A9\D0\06j\110w\8E0\1F\06\03U\1D#\04\180\16\80\14Y\B8n\1Ar\E9'\1E\BF\80\87\0F\A9\D0\06j\110w\8E0\0F\06\03U\1D\13\01\01\FF\04\050\03\01\01\FF0\0D\06\09*\86H\86\F7\0D\01\01\0B\05\00\03\82\01\01\00\98v\9E<\FC?X\E8\F2\1F.\11\A2Y\FA'\B5\EC\9D\97\05\06,\95\A5(\88\86\EBN\8Ab\E9\87x\D8\18\22N\B1\8DFJLn|Sb,\F2z\95\A0\1A0\18j1o?U%\9Fg`h\99\0FA\09\C8\E2\043\22\1A\E9\F3\AE\CE\B6\83dxf\14\C9T\C84p\96\AF\16\CD\B8\DF\81~\F0\A6}\C1\13\B2v:\D5~h\8C\D5\00p\82#~^\C91/3T\AA\AF\CD\E98\9A#S\ADNr\A7oG`\C9\D3\06\9Bz!\C6\E9\DB<\AA\C0!)_DjE\90s^mx\82\CBB\E6\BAg\B2\E6\A2\15\04\EAi\AE>\C0\0C\10\99\EC\A9\B0~\E8\94\E2\F3\AF\F7\9Fe\E7\D7\E2I\FAR}\B5\FD\A0\A5\E0I\A7=\94 -\EC\8C\22\A5\A4C\FA~\D0P!\B8g\18Di\8F\DDGA\C65\E0\E9.A\A9oA\EE\B9\BDE\F3\88\C1#5\96\BA\F8\CDK\83s_", align 16
@__const.setup_tests.str1 = private unnamed_addr constant [21 x i8] c"SubjectPublicKeyInfo\00", align 16
@__const.setup_tests.str2 = private unnamed_addr constant [21 x i8] c"subjectpublickeyinfo\00", align 16
@.str = private unnamed_addr constant [1 x i8] zeroinitializer, align 1
@.str.1 = private unnamed_addr constant [29 x i8] c"../openssl/test/localetest.c\00", align 1
@.str.2 = private unnamed_addr constant [41 x i8] c"Cannot set the locale necessary for test\00", align 1
@.str.3 = private unnamed_addr constant [65 x i8] c"Case-insensitive comparison via strcasecmp in current locale %s\0A\00", align 1
@.str.4 = private unnamed_addr constant [7 x i8] c"failed\00", align 1
@.str.5 = private unnamed_addr constant [10 x i8] c"succeeded\00", align 1
@.str.6 = private unnamed_addr constant [31 x i8] c"OPENSSL_strcasecmp(str1, str2)\00", align 1
@.str.7 = private unnamed_addr constant [5 x i8] c"cert\00", align 1
@.str.8 = private unnamed_addr constant [12 x i8] c"cert_pubkey\00", align 1
@.str.9 = private unnamed_addr constant [30 x i8] c"X509_PUBKEY_get0(cert_pubkey)\00", align 1

; Function Attrs: nounwind uwtable
define dso_local i32 @setup_tests() local_unnamed_addr #0 {
  %1 = alloca [781 x i8], align 16
  %2 = alloca [21 x i8], align 16
  %3 = alloca [21 x i8], align 16
  %4 = alloca ptr, align 8
  call void @llvm.lifetime.start.p0(i64 781, ptr nonnull %1) #7
  call void @llvm.memcpy.p0.p0.i64(ptr noundef nonnull align 16 dereferenceable(781) %1, ptr noundef nonnull align 16 dereferenceable(781) @__const.setup_tests.der_bytes, i64 781, i1 false)
  call void @llvm.lifetime.start.p0(i64 21, ptr nonnull %2) #7
  call void @llvm.memcpy.p0.p0.i64(ptr noundef nonnull align 16 dereferenceable(21) %2, ptr noundef nonnull align 16 dereferenceable(21) @__const.setup_tests.str1, i64 21, i1 false)
  call void @llvm.lifetime.start.p0(i64 21, ptr nonnull %3) #7
  call void @llvm.memcpy.p0.p0.i64(ptr noundef nonnull align 16 dereferenceable(21) %3, ptr noundef nonnull align 16 dereferenceable(21) @__const.setup_tests.str2, i64 21, i1 false)
  call void @llvm.lifetime.start.p0(i64 8, ptr nonnull %4) #7
  store ptr %1, ptr %4, align 8, !tbaa !4
  %5 = call ptr @setlocale(i32 noundef 6, ptr noundef nonnull @.str) #7
  %6 = icmp eq ptr %5, null
  br i1 %6, label %7, label %9

7:                                                ; preds = %0
  %8 = call i32 (ptr, i32, ptr, ...) @test_skip(ptr noundef nonnull @.str.1, i32 noundef 102, ptr noundef nonnull @.str.2) #7
  br label %26

9:                                                ; preds = %0
  %10 = call i32 @strcasecmp(ptr noundef nonnull %2, ptr noundef nonnull %3) #8
  %.not = icmp eq i32 %10, 0
  %11 = select i1 %.not, ptr @.str.5, ptr @.str.4
  call void (ptr, ...) @test_note(ptr noundef nonnull @.str.3, ptr noundef nonnull %11) #7
  %12 = call i32 @OPENSSL_strcasecmp(ptr noundef nonnull %2, ptr noundef nonnull %3) #7
  %13 = icmp ne i32 %12, 0
  %14 = zext i1 %13 to i32
  %15 = call i32 @test_false(ptr noundef nonnull @.str.1, i32 noundef 107, ptr noundef nonnull @.str.6, i32 noundef %14) #7
  %.not8 = icmp eq i32 %15, 0
  br i1 %.not8, label %26, label %16

16:                                               ; preds = %9
  %17 = call ptr @d2i_X509(ptr noundef null, ptr noundef nonnull %4, i64 noundef 781) #7
  %18 = call i32 @test_ptr(ptr noundef nonnull @.str.1, i32 noundef 111, ptr noundef nonnull @.str.7, ptr noundef %17) #7
  %.not9 = icmp eq i32 %18, 0
  br i1 %.not9, label %26, label %19

19:                                               ; preds = %16
  %20 = call ptr @X509_get_X509_PUBKEY(ptr noundef %17) #7
  %21 = call i32 @test_ptr(ptr noundef nonnull @.str.1, i32 noundef 115, ptr noundef nonnull @.str.8, ptr noundef %20) #7
  %.not10 = icmp eq i32 %21, 0
  br i1 %.not10, label %22, label %23

22:                                               ; preds = %19
  call void @X509_free(ptr noundef %17) #7
  br label %26

23:                                               ; preds = %19
  %24 = call ptr @X509_PUBKEY_get0(ptr noundef %20) #7
  %25 = call i32 @test_ptr(ptr noundef nonnull @.str.1, i32 noundef 120, ptr noundef nonnull @.str.9, ptr noundef %24) #7
  %.not11 = icmp ne i32 %25, 0
  call void @X509_free(ptr noundef %17) #7
  %. = zext i1 %.not11 to i32
  br label %26

26:                                               ; preds = %23, %16, %9, %22, %7
  %.0 = phi i32 [ %8, %7 ], [ 0, %22 ], [ 0, %9 ], [ 0, %16 ], [ %., %23 ]
  call void @llvm.lifetime.end.p0(i64 8, ptr nonnull %4) #7
  call void @llvm.lifetime.end.p0(i64 21, ptr nonnull %3) #7
  call void @llvm.lifetime.end.p0(i64 21, ptr nonnull %2) #7
  call void @llvm.lifetime.end.p0(i64 781, ptr nonnull %1) #7
  ret i32 %.0
}

; Function Attrs: mustprogress nocallback nofree nosync nounwind willreturn memory(argmem: readwrite)
declare void @llvm.lifetime.start.p0(i64 immarg, ptr captures(none)) #1

; Function Attrs: mustprogress nocallback nofree nounwind willreturn memory(argmem: readwrite)
declare void @llvm.memcpy.p0.p0.i64(ptr noalias writeonly captures(none), ptr noalias readonly captures(none), i64, i1 immarg) #2

; Function Attrs: nounwind
declare ptr @setlocale(i32 noundef, ptr noundef) local_unnamed_addr #3

declare i32 @test_skip(ptr noundef, i32 noundef, ptr noundef, ...) local_unnamed_addr #4

; Function Attrs: mustprogress nofree nounwind willreturn memory(read)
declare i32 @strcasecmp(ptr noundef captures(none), ptr noundef captures(none)) local_unnamed_addr #5

declare void @test_note(ptr noundef, ...) local_unnamed_addr #4

declare i32 @test_false(ptr noundef, i32 noundef, ptr noundef, i32 noundef) local_unnamed_addr #4

declare i32 @OPENSSL_strcasecmp(ptr noundef, ptr noundef) local_unnamed_addr #4

declare ptr @d2i_X509(ptr noundef, ptr noundef, i64 noundef) local_unnamed_addr #4

declare i32 @test_ptr(ptr noundef, i32 noundef, ptr noundef, ptr noundef) local_unnamed_addr #4

declare ptr @X509_get_X509_PUBKEY(ptr noundef) local_unnamed_addr #4

declare void @X509_free(ptr noundef) local_unnamed_addr #4

declare ptr @X509_PUBKEY_get0(ptr noundef) local_unnamed_addr #4

; Function Attrs: mustprogress nocallback nofree nosync nounwind willreturn memory(argmem: readwrite)
declare void @llvm.lifetime.end.p0(i64 immarg, ptr captures(none)) #1

; Function Attrs: mustprogress nofree norecurse nosync nounwind willreturn memory(none) uwtable
define dso_local void @cleanup_tests() local_unnamed_addr #6 {
  ret void
}


!llvm.module.flags = !{!0, !1, !2, !3}

!0 = !{i32 1, !"wchar_size", i32 4}
!1 = !{i32 8, !"PIC Level", i32 2}
!2 = !{i32 7, !"PIE Level", i32 2}
!3 = !{i32 7, !"uwtable", i32 2}
!4 = !{!5, !5, i64 0}
!5 = !{!"p1 omnipotent char", !6, i64 0}
!6 = !{!"any pointer", !7, i64 0}
!7 = !{!"omnipotent char", !8, i64 0}
!8 = !{!"Simple C/C++ TBAA"}
